target datalayout = "e-m:e-p270:32:32-p271:32:32-p272:64:64-i64:64-i128:128-f80:128-n8:16:32:64-S128"
target triple = "x86_64-pc-linux-gnu"

%class.QIcon = type { ptr }
%class.QString = type { %struct.QArrayDataPointer }
%struct.QArrayDataPointer = type { ptr, ptr, i64 }
%class.ExtcapOptionsDialog = type { %class.QDialog, ptr, %class.QString, i32, %class.QIcon, %class.QList }
%class.QDialog = type { %class.QWidget }
%class.QWidget = type { %class.QObject, %class.QPaintDevice.base, ptr }
%class.QObject = type { ptr, %class.QScopedPointer }
%class.QScopedPointer = type { ptr }
%class.QPaintDevice.base = type <{ ptr, i16 }>
%class.QList = type { %struct.QArrayDataPointer.0 }
%struct.QArrayDataPointer.0 = type { ptr, ptr, i64 }
%class.Ui_ExtcapOptionsDialog = type { ptr, ptr, ptr, ptr, ptr }
%"class.QList<ExtcapArgument *>::const_iterator" = type { ptr }

@_ZTI14ExtcapArgument = external constant ptr
@_ZTI10ExtArgBool = external constant ptr
@_ZTI11ExtArgRadio = external constant ptr
@_ZTI14ExtArgSelector = external constant ptr
@_ZTI17ExtArgMultiSelect = external constant ptr
@_ZTI27ExtcapArgumentFileSelection = external constant ptr
@_ZTI12ExtArgNumber = external constant ptr
@_ZTI10ExtArgText = external constant ptr
@_ZTI15ExtArgTimestamp = external constant ptr

; Function Attrs: mustprogress nounwind null_pointer_is_valid sspstrong uwtable
define linkonce_odr noundef ptr @_ZNK17QArrayDataPointerIP14ExtcapArgumentE4dataEv(ptr noundef align 8 dereferenceable_or_null(24) %0) #6 comdat align 2 {
  %2 = alloca ptr, align 8
  store ptr %0, ptr %2, align 8
  %3 = load ptr, ptr %2, align 8
  %4 = getelementptr inbounds nuw %struct.QArrayDataPointer.0, ptr %3, i32 0, i32 1
  %5 = load ptr, ptr %4, align 8
  ret ptr %5
}

; Function Attrs: mustprogress nounwind null_pointer_is_valid sspstrong uwtable
define linkonce_odr noundef ptr @_ZNK17QArrayDataPointerIP14ExtcapArgumentE8constEndEv(ptr noundef align 8 dereferenceable_or_null(24) %0) #6 comdat align 2 {
  %2 = alloca ptr, align 8
  store ptr %0, ptr %2, align 8
  %3 = load ptr, ptr %2, align 8
  %4 = call noundef ptr @_ZNK17QArrayDataPointerIP14ExtcapArgumentE4dataEv(ptr noundef align 8 dereferenceable_or_null(24) %3) #27
  %5 = getelementptr inbounds nuw %struct.QArrayDataPointer.0, ptr %3, i32 0, i32 2
  %6 = load i64, ptr %5, align 8
  %7 = getelementptr ptr, ptr %4, i64 %6
  ret ptr %7
}

; Function Attrs: noinline noreturn nounwind null_pointer_is_valid sspstrong uwtable
define linkonce_odr hidden void @__clang_call_terminate(ptr noundef %0) #13 comdat {
  %2 = call ptr @__cxa_begin_catch(ptr %0) #27
  call void @_ZSt9terminatev() #29
  unreachable
}

; Function Attrs: inlinehint mustprogress nounwind null_pointer_is_valid sspstrong uwtable
define linkonce_odr void @_ZN5QListIP14ExtcapArgumentE14const_iteratorC2EPKS1_(ptr noundef align 8 dereferenceable_or_null(8) %0, ptr noundef %1) unnamed_addr #1 comdat align 2 {
  %3 = alloca ptr, align 8
  %4 = alloca ptr, align 8
  store ptr %0, ptr %3, align 8
  store ptr %1, ptr %4, align 8
  %5 = load ptr, ptr %3, align 8
  %6 = getelementptr inbounds nuw %"class.QList<ExtcapArgument *>::const_iterator", ptr %5, i32 0, i32 0
  %7 = load ptr, ptr %4, align 8
  store ptr %7, ptr %6, align 8
  ret void
}

; Function Attrs: mustprogress nounwind null_pointer_is_valid sspstrong uwtable
define linkonce_odr noundef ptr @_ZNK17QArrayDataPointerIP14ExtcapArgumentE10constBeginEv(ptr noundef align 8 dereferenceable_or_null(24) %0) #6 comdat align 2 {
  %2 = alloca ptr, align 8
  store ptr %0, ptr %2, align 8
  %3 = load ptr, ptr %2, align 8
  %4 = call noundef ptr @_ZNK17QArrayDataPointerIP14ExtcapArgumentE4dataEv(ptr noundef align 8 dereferenceable_or_null(24) %3) #27
  ret ptr %4
}

; Function Attrs: mustprogress nounwind null_pointer_is_valid sspstrong uwtable
define linkonce_odr noundef ptr @_ZNK17QArrayDataPointerIP14ExtcapArgumentEptEv(ptr noundef align 8 dereferenceable_or_null(24) %0) #6 comdat align 2 {
  %2 = alloca ptr, align 8
  store ptr %0, ptr %2, align 8
  %3 = load ptr, ptr %2, align 8
  ret ptr %3
}

; Function Attrs: inlinehint mustprogress nounwind null_pointer_is_valid sspstrong uwtable
define linkonce_odr noundef align 8 dereferenceable(8) ptr @_ZN5QListIP14ExtcapArgumentE14const_iteratorppEv(ptr noundef align 8 dereferenceable_or_null(8) %0) #1 comdat align 2 {
  %2 = alloca ptr, align 8
  store ptr %0, ptr %2, align 8
  %3 = load ptr, ptr %2, align 8
  %4 = getelementptr inbounds nuw %"class.QList<ExtcapArgument *>::const_iterator", ptr %3, i32 0, i32 0
  %5 = load ptr, ptr %4, align 8
  %6 = getelementptr ptr, ptr %5, i32 1
  store ptr %6, ptr %4, align 8
  ret ptr %3
}

; Function Attrs: inlinehint mustprogress nounwind null_pointer_is_valid sspstrong uwtable
define linkonce_odr noundef align 8 dereferenceable(8) ptr @_ZNK5QListIP14ExtcapArgumentE14const_iteratordeEv(ptr noundef align 8 dereferenceable_or_null(8) %0) #1 comdat align 2 {
  %2 = alloca ptr, align 8
  store ptr %0, ptr %2, align 8
  %3 = load ptr, ptr %2, align 8
  %4 = getelementptr inbounds nuw %"class.QList<ExtcapArgument *>::const_iterator", ptr %3, i32 0, i32 0
  %5 = load ptr, ptr %4, align 8
  ret ptr %5
}

; Function Attrs: inlinehint mustprogress nounwind null_pointer_is_valid sspstrong uwtable
define linkonce_odr noundef zeroext i1 @_ZNK5QListIP14ExtcapArgumentE14const_iteratorneES3_(ptr noundef align 8 dereferenceable_or_null(8) %0, ptr %1) #1 comdat align 2 {
  %3 = alloca %"class.QList<ExtcapArgument *>::const_iterator", align 8
  %4 = alloca ptr, align 8
  %5 = getelementptr inbounds nuw %"class.QList<ExtcapArgument *>::const_iterator", ptr %3, i32 0, i32 0
  store ptr %1, ptr %5, align 8
  store ptr %0, ptr %4, align 8
  %6 = load ptr, ptr %4, align 8
  %7 = getelementptr inbounds nuw %"class.QList<ExtcapArgument *>::const_iterator", ptr %6, i32 0, i32 0
  %8 = load ptr, ptr %7, align 8
  %9 = getelementptr inbounds nuw %"class.QList<ExtcapArgument *>::const_iterator", ptr %3, i32 0, i32 0
  %10 = load ptr, ptr %9, align 8
  %11 = icmp ne ptr %8, %10
  ret i1 %11
}

; Function Attrs: mustprogress nounwind null_pointer_is_valid sspstrong uwtable
define linkonce_odr ptr @_ZNK5QListIP14ExtcapArgumentE8constEndEv(ptr noundef align 8 dereferenceable_or_null(24) %0) #6 comdat align 2 personality ptr @__gxx_personality_v0 {
  %2 = alloca %"class.QList<ExtcapArgument *>::const_iterator", align 8
  %3 = alloca ptr, align 8
  store ptr %0, ptr %3, align 8
  %4 = load ptr, ptr %3, align 8
  %5 = getelementptr inbounds nuw %class.QList, ptr %4, i32 0, i32 0
  %6 = call noundef ptr @_ZNK17QArrayDataPointerIP14ExtcapArgumentEptEv(ptr noundef align 8 dereferenceable_or_null(24) %5) #27
  %7 = call noundef ptr @_ZNK17QArrayDataPointerIP14ExtcapArgumentE8constEndEv(ptr noundef align 8 dereferenceable_or_null(24) %6) #27
  invoke void @_ZN5QListIP14ExtcapArgumentE14const_iteratorC2EPKS1_(ptr noundef align 8 dereferenceable_or_null(8) %2, ptr noundef %7)
          to label %8 unwind label %11

8:                                                ; preds = %1
  %9 = getelementptr inbounds nuw %"class.QList<ExtcapArgument *>::const_iterator", ptr %2, i32 0, i32 0
  %10 = load ptr, ptr %9, align 8
  ret ptr %10

11:                                               ; preds = %1
  %12 = landingpad { ptr, i32 }
          catch ptr null
  %13 = extractvalue { ptr, i32 } %12, 0
  call void @__clang_call_terminate(ptr %13) #29
  unreachable
}

; Function Attrs: mustprogress nounwind null_pointer_is_valid sspstrong uwtable
define linkonce_odr ptr @_ZNK5QListIP14ExtcapArgumentE10constBeginEv(ptr noundef align 8 dereferenceable_or_null(24) %0) #6 comdat align 2 personality ptr @__gxx_personality_v0 {
  %2 = alloca %"class.QList<ExtcapArgument *>::const_iterator", align 8
  %3 = alloca ptr, align 8
  store ptr %0, ptr %3, align 8
  %4 = load ptr, ptr %3, align 8
  %5 = getelementptr inbounds nuw %class.QList, ptr %4, i32 0, i32 0
  %6 = call noundef ptr @_ZNK17QArrayDataPointerIP14ExtcapArgumentEptEv(ptr noundef align 8 dereferenceable_or_null(24) %5) #27
  %7 = call noundef ptr @_ZNK17QArrayDataPointerIP14ExtcapArgumentE10constBeginEv(ptr noundef align 8 dereferenceable_or_null(24) %6) #27
  invoke void @_ZN5QListIP14ExtcapArgumentE14const_iteratorC2EPKS1_(ptr noundef align 8 dereferenceable_or_null(8) %2, ptr noundef %7)
          to label %8 unwind label %11

8:                                                ; preds = %1
  %9 = getelementptr inbounds nuw %"class.QList<ExtcapArgument *>::const_iterator", ptr %2, i32 0, i32 0
  %10 = load ptr, ptr %9, align 8
  ret ptr %10

11:                                               ; preds = %1
  %12 = landingpad { ptr, i32 }
          catch ptr null
  %13 = extractvalue { ptr, i32 } %12, 0
  call void @__clang_call_terminate(ptr %13) #29
  unreachable
}

; Function Attrs: inlinehint mustprogress nounwind null_pointer_is_valid sspstrong uwtable
define linkonce_odr void @_ZN5QListIP14ExtcapArgumentE14const_iteratorC2Ev(ptr noundef align 8 dereferenceable_or_null(8) %0) unnamed_addr #1 comdat align 2 {
  %2 = alloca ptr, align 8
  store ptr %0, ptr %2, align 8
  %3 = load ptr, ptr %2, align 8
  %4 = getelementptr inbounds nuw %"class.QList<ExtcapArgument *>::const_iterator", ptr %3, i32 0, i32 0
  store ptr null, ptr %4, align 8
  ret void
}

; Function Attrs: mustprogress null_pointer_is_valid sspstrong uwtable
define void @_ZN19ExtcapOptionsDialog15anyValueChangedEv(ptr noundef align 8 dereferenceable_or_null(112) %0) #0 align 2 {
  %2 = alloca ptr, align 8
  %3 = alloca i8, align 1
  %4 = alloca %"class.QList<ExtcapArgument *>::const_iterator", align 8
  %5 = alloca %"class.QList<ExtcapArgument *>::const_iterator", align 8
  %6 = alloca %"class.QList<ExtcapArgument *>::const_iterator", align 8
  store ptr %0, ptr %2, align 8
  %7 = load ptr, ptr %2, align 8
  call void @llvm.lifetime.start.p0(i64 1, ptr %3) #27
  store i8 1, ptr %3, align 1
  call void @llvm.lifetime.start.p0(i64 8, ptr %4) #27
  call void @_ZN5QListIP14ExtcapArgumentE14const_iteratorC2Ev(ptr noundef align 8 dereferenceable_or_null(8) %4) #27
  call void @llvm.lifetime.start.p0(i64 8, ptr %5) #27
  %8 = getelementptr inbounds nuw %class.ExtcapOptionsDialog, ptr %7, i32 0, i32 5
  %9 = call ptr @_ZNK5QListIP14ExtcapArgumentE10constBeginEv(ptr noundef align 8 dereferenceable_or_null(24) %8) #27
  %10 = getelementptr inbounds nuw %"class.QList<ExtcapArgument *>::const_iterator", ptr %5, i32 0, i32 0
  store ptr %9, ptr %10, align 8
  call void @llvm.memcpy.p0.p0.i64(ptr align 8 %4, ptr align 8 %5, i64 8, i1 false)
  call void @llvm.lifetime.end.p0(i64 8, ptr %5) #27
  br label %11

11:                                               ; preds = %187, %1
  %12 = getelementptr inbounds nuw %class.ExtcapOptionsDialog, ptr %7, i32 0, i32 5
  %13 = call ptr @_ZNK5QListIP14ExtcapArgumentE8constEndEv(ptr noundef align 8 dereferenceable_or_null(24) %12) #27
  %14 = getelementptr inbounds nuw %"class.QList<ExtcapArgument *>::const_iterator", ptr %6, i32 0, i32 0
  store ptr %13, ptr %14, align 8
  %15 = getelementptr inbounds nuw %"class.QList<ExtcapArgument *>::const_iterator", ptr %6, i32 0, i32 0
  %16 = load ptr, ptr %15, align 8
  %17 = call noundef zeroext i1 @_ZNK5QListIP14ExtcapArgumentE14const_iteratorneES3_(ptr noundef align 8 dereferenceable_or_null(8) %4, ptr %16)
  br i1 %17, label %18, label %189

18:                                               ; preds = %11
  %19 = call noundef align 8 dereferenceable(8) ptr @_ZNK5QListIP14ExtcapArgumentE14const_iteratordeEv(ptr noundef align 8 dereferenceable_or_null(8) %4)
  %20 = load ptr, ptr %19, align 8
  %21 = icmp eq ptr %20, null
  br i1 %21, label %24, label %22

22:                                               ; preds = %18
  %23 = call ptr @__dynamic_cast(ptr %20, ptr @_ZTI14ExtcapArgument, ptr @_ZTI10ExtArgBool, i64 0) #27
  br label %25

24:                                               ; preds = %18
  br label %25

25:                                               ; preds = %24, %22
  %26 = phi ptr [ %23, %22 ], [ null, %24 ]
  %27 = icmp ne ptr %26, null
  br i1 %27, label %28, label %37

28:                                               ; preds = %25
  %29 = call noundef align 8 dereferenceable(8) ptr @_ZNK5QListIP14ExtcapArgumentE14const_iteratordeEv(ptr noundef align 8 dereferenceable_or_null(8) %4)
  %30 = load ptr, ptr %29, align 8
  %31 = load ptr, ptr %30, align 8
  %32 = getelementptr inbounds ptr, ptr %31, i64 18
  %33 = load ptr, ptr %32, align 8
  %34 = call noundef zeroext i1 %33(ptr noundef align 8 dereferenceable_or_null(96) %30)
  br i1 %34, label %36, label %35

35:                                               ; preds = %28
  store i8 0, ptr %3, align 1
  br label %36

36:                                               ; preds = %35, %28
  br label %186

37:                                               ; preds = %25
  %38 = call noundef align 8 dereferenceable(8) ptr @_ZNK5QListIP14ExtcapArgumentE14const_iteratordeEv(ptr noundef align 8 dereferenceable_or_null(8) %4)
  %39 = load ptr, ptr %38, align 8
  %40 = icmp eq ptr %39, null
  br i1 %40, label %43, label %41

41:                                               ; preds = %37
  %42 = call ptr @__dynamic_cast(ptr %39, ptr @_ZTI14ExtcapArgument, ptr @_ZTI11ExtArgRadio, i64 0) #27
  br label %44

43:                                               ; preds = %37
  br label %44

44:                                               ; preds = %43, %41
  %45 = phi ptr [ %42, %41 ], [ null, %43 ]
  %46 = icmp ne ptr %45, null
  br i1 %46, label %47, label %56

47:                                               ; preds = %44
  %48 = call noundef align 8 dereferenceable(8) ptr @_ZNK5QListIP14ExtcapArgumentE14const_iteratordeEv(ptr noundef align 8 dereferenceable_or_null(8) %4)
  %49 = load ptr, ptr %48, align 8
  %50 = load ptr, ptr %49, align 8
  %51 = getelementptr inbounds ptr, ptr %50, i64 18
  %52 = load ptr, ptr %51, align 8
  %53 = call noundef zeroext i1 %52(ptr noundef align 8 dereferenceable_or_null(104) %49)
  br i1 %53, label %55, label %54

54:                                               ; preds = %47
  store i8 0, ptr %3, align 1
  br label %55

55:                                               ; preds = %54, %47
  br label %185

56:                                               ; preds = %44
  %57 = call noundef align 8 dereferenceable(8) ptr @_ZNK5QListIP14ExtcapArgumentE14const_iteratordeEv(ptr noundef align 8 dereferenceable_or_null(8) %4)
  %58 = load ptr, ptr %57, align 8
  %59 = icmp eq ptr %58, null
  br i1 %59, label %62, label %60

60:                                               ; preds = %56
  %61 = call ptr @__dynamic_cast(ptr %58, ptr @_ZTI14ExtcapArgument, ptr @_ZTI14ExtArgSelector, i64 0) #27
  br label %63

62:                                               ; preds = %56
  br label %63

63:                                               ; preds = %62, %60
  %64 = phi ptr [ %61, %60 ], [ null, %62 ]
  %65 = icmp ne ptr %64, null
  br i1 %65, label %66, label %75

66:                                               ; preds = %63
  %67 = call noundef align 8 dereferenceable(8) ptr @_ZNK5QListIP14ExtcapArgumentE14const_iteratordeEv(ptr noundef align 8 dereferenceable_or_null(8) %4)
  %68 = load ptr, ptr %67, align 8
  %69 = load ptr, ptr %68, align 8
  %70 = getelementptr inbounds ptr, ptr %69, i64 18
  %71 = load ptr, ptr %70, align 8
  %72 = call noundef zeroext i1 %71(ptr noundef align 8 dereferenceable_or_null(96) %68)
  br i1 %72, label %74, label %73

73:                                               ; preds = %66
  store i8 0, ptr %3, align 1
  br label %74

74:                                               ; preds = %73, %66
  br label %184

75:                                               ; preds = %63
  %76 = call noundef align 8 dereferenceable(8) ptr @_ZNK5QListIP14ExtcapArgumentE14const_iteratordeEv(ptr noundef align 8 dereferenceable_or_null(8) %4)
  %77 = load ptr, ptr %76, align 8
  %78 = icmp eq ptr %77, null
  br i1 %78, label %81, label %79

79:                                               ; preds = %75
  %80 = call ptr @__dynamic_cast(ptr %77, ptr @_ZTI14ExtcapArgument, ptr @_ZTI17ExtArgMultiSelect, i64 0) #27
  br label %82

81:                                               ; preds = %75
  br label %82

82:                                               ; preds = %81, %79
  %83 = phi ptr [ %80, %79 ], [ null, %81 ]
  %84 = icmp ne ptr %83, null
  br i1 %84, label %85, label %94

85:                                               ; preds = %82
  %86 = call noundef align 8 dereferenceable(8) ptr @_ZNK5QListIP14ExtcapArgumentE14const_iteratordeEv(ptr noundef align 8 dereferenceable_or_null(8) %4)
  %87 = load ptr, ptr %86, align 8
  %88 = load ptr, ptr %87, align 8
  %89 = getelementptr inbounds ptr, ptr %88, i64 18
  %90 = load ptr, ptr %89, align 8
  %91 = call noundef zeroext i1 %90(ptr noundef align 8 dereferenceable_or_null(104) %87)
  br i1 %91, label %93, label %92

92:                                               ; preds = %85
  store i8 0, ptr %3, align 1
  br label %93

93:                                               ; preds = %92, %85
  br label %183

94:                                               ; preds = %82
  %95 = call noundef align 8 dereferenceable(8) ptr @_ZNK5QListIP14ExtcapArgumentE14const_iteratordeEv(ptr noundef align 8 dereferenceable_or_null(8) %4)
  %96 = load ptr, ptr %95, align 8
  %97 = icmp eq ptr %96, null
  br i1 %97, label %100, label %98

98:                                               ; preds = %94
  %99 = call ptr @__dynamic_cast(ptr %96, ptr @_ZTI14ExtcapArgument, ptr @_ZTI27ExtcapArgumentFileSelection, i64 0) #27
  br label %101

100:                                              ; preds = %94
  br label %101

101:                                              ; preds = %100, %98
  %102 = phi ptr [ %99, %98 ], [ null, %100 ]
  %103 = icmp ne ptr %102, null
  br i1 %103, label %104, label %113

104:                                              ; preds = %101
  %105 = call noundef align 8 dereferenceable(8) ptr @_ZNK5QListIP14ExtcapArgumentE14const_iteratordeEv(ptr noundef align 8 dereferenceable_or_null(8) %4)
  %106 = load ptr, ptr %105, align 8
  %107 = load ptr, ptr %106, align 8
  %108 = getelementptr inbounds ptr, ptr %107, i64 18
  %109 = load ptr, ptr %108, align 8
  %110 = call noundef zeroext i1 %109(ptr noundef align 8 dereferenceable_or_null(96) %106)
  br i1 %110, label %112, label %111

111:                                              ; preds = %104
  store i8 0, ptr %3, align 1
  br label %112

112:                                              ; preds = %111, %104
  br label %182

113:                                              ; preds = %101
  %114 = call noundef align 8 dereferenceable(8) ptr @_ZNK5QListIP14ExtcapArgumentE14const_iteratordeEv(ptr noundef align 8 dereferenceable_or_null(8) %4)
  %115 = load ptr, ptr %114, align 8
  %116 = icmp eq ptr %115, null
  br i1 %116, label %119, label %117

117:                                              ; preds = %113
  %118 = call ptr @__dynamic_cast(ptr %115, ptr @_ZTI14ExtcapArgument, ptr @_ZTI12ExtArgNumber, i64 0) #27
  br label %120

119:                                              ; preds = %113
  br label %120

120:                                              ; preds = %119, %117
  %121 = phi ptr [ %118, %117 ], [ null, %119 ]
  %122 = icmp ne ptr %121, null
  br i1 %122, label %123, label %132

123:                                              ; preds = %120
  %124 = call noundef align 8 dereferenceable(8) ptr @_ZNK5QListIP14ExtcapArgumentE14const_iteratordeEv(ptr noundef align 8 dereferenceable_or_null(8) %4)
  %125 = load ptr, ptr %124, align 8
  %126 = load ptr, ptr %125, align 8
  %127 = getelementptr inbounds ptr, ptr %126, i64 18
  %128 = load ptr, ptr %127, align 8
  %129 = call noundef zeroext i1 %128(ptr noundef align 8 dereferenceable_or_null(96) %125)
  br i1 %129, label %131, label %130

130:                                              ; preds = %123
  store i8 0, ptr %3, align 1
  br label %131

131:                                              ; preds = %130, %123
  br label %181

132:                                              ; preds = %120
  %133 = call noundef align 8 dereferenceable(8) ptr @_ZNK5QListIP14ExtcapArgumentE14const_iteratordeEv(ptr noundef align 8 dereferenceable_or_null(8) %4)
  %134 = load ptr, ptr %133, align 8
  %135 = icmp eq ptr %134, null
  br i1 %135, label %138, label %136

136:                                              ; preds = %132
  %137 = call ptr @__dynamic_cast(ptr %134, ptr @_ZTI14ExtcapArgument, ptr @_ZTI10ExtArgText, i64 0) #27
  br label %139

138:                                              ; preds = %132
  br label %139

139:                                              ; preds = %138, %136
  %140 = phi ptr [ %137, %136 ], [ null, %138 ]
  %141 = icmp ne ptr %140, null
  br i1 %141, label %142, label %151

142:                                              ; preds = %139
  %143 = call noundef align 8 dereferenceable(8) ptr @_ZNK5QListIP14ExtcapArgumentE14const_iteratordeEv(ptr noundef align 8 dereferenceable_or_null(8) %4)
  %144 = load ptr, ptr %143, align 8
  %145 = load ptr, ptr %144, align 8
  %146 = getelementptr inbounds ptr, ptr %145, i64 18
  %147 = load ptr, ptr %146, align 8
  %148 = call noundef zeroext i1 %147(ptr noundef align 8 dereferenceable_or_null(96) %144)
  br i1 %148, label %150, label %149

149:                                              ; preds = %142
  store i8 0, ptr %3, align 1
  br label %150

150:                                              ; preds = %149, %142
  br label %180

151:                                              ; preds = %139
  %152 = call noundef align 8 dereferenceable(8) ptr @_ZNK5QListIP14ExtcapArgumentE14const_iteratordeEv(ptr noundef align 8 dereferenceable_or_null(8) %4)
  %153 = load ptr, ptr %152, align 8
  %154 = icmp eq ptr %153, null
  br i1 %154, label %157, label %155

155:                                              ; preds = %151
  %156 = call ptr @__dynamic_cast(ptr %153, ptr @_ZTI14ExtcapArgument, ptr @_ZTI15ExtArgTimestamp, i64 0) #27
  br label %158

157:                                              ; preds = %151
  br label %158

158:                                              ; preds = %157, %155
  %159 = phi ptr [ %156, %155 ], [ null, %157 ]
  %160 = icmp ne ptr %159, null
  br i1 %160, label %161, label %170

161:                                              ; preds = %158
  %162 = call noundef align 8 dereferenceable(8) ptr @_ZNK5QListIP14ExtcapArgumentE14const_iteratordeEv(ptr noundef align 8 dereferenceable_or_null(8) %4)
  %163 = load ptr, ptr %162, align 8
  %164 = load ptr, ptr %163, align 8
  %165 = getelementptr inbounds ptr, ptr %164, i64 18
  %166 = load ptr, ptr %165, align 8
  %167 = call noundef zeroext i1 %166(ptr noundef align 8 dereferenceable_or_null(104) %163)
  br i1 %167, label %169, label %168

168:                                              ; preds = %161
  store i8 0, ptr %3, align 1
  br label %169

169:                                              ; preds = %168, %161
  br label %179

170:                                              ; preds = %158
  %171 = call noundef align 8 dereferenceable(8) ptr @_ZNK5QListIP14ExtcapArgumentE14const_iteratordeEv(ptr noundef align 8 dereferenceable_or_null(8) %4)
  %172 = load ptr, ptr %171, align 8
  %173 = load ptr, ptr %172, align 8
  %174 = getelementptr inbounds ptr, ptr %173, i64 18
  %175 = load ptr, ptr %174, align 8
  %176 = call noundef zeroext i1 %175(ptr noundef align 8 dereferenceable_or_null(88) %172)
  br i1 %176, label %178, label %177

177:                                              ; preds = %170
  store i8 0, ptr %3, align 1
  br label %178

178:                                              ; preds = %177, %170
  br label %179

179:                                              ; preds = %178, %169
  br label %180

180:                                              ; preds = %179, %150
  br label %181

181:                                              ; preds = %180, %131
  br label %182

182:                                              ; preds = %181, %112
  br label %183

183:                                              ; preds = %182, %93
  br label %184

184:                                              ; preds = %183, %74
  br label %185

185:                                              ; preds = %184, %55
  br label %186

186:                                              ; preds = %185, %36
  br label %187

187:                                              ; preds = %186
  %188 = call noundef align 8 dereferenceable(8) ptr @_ZN5QListIP14ExtcapArgumentE14const_iteratorppEv(ptr noundef align 8 dereferenceable_or_null(8) %4)
  br label %11, !llvm.loop !14

189:                                              ; preds = %11
  %190 = getelementptr inbounds nuw %class.ExtcapOptionsDialog, ptr %7, i32 0, i32 1
  %191 = load ptr, ptr %190, align 8
  %192 = getelementptr inbounds nuw %class.Ui_ExtcapOptionsDialog, ptr %191, i32 0, i32 4
  %193 = load ptr, ptr %192, align 8
  %194 = call noundef ptr @_ZNK16QDialogButtonBox6buttonENS_14StandardButtonE(ptr noundef align 8 dereferenceable_or_null(40) %193, i32 noundef 1024)
  %195 = load i8, ptr %3, align 1, !range !6, !noundef !7
  %196 = trunc i8 %195 to i1
  call void @_ZN7QWidget10setEnabledEb(ptr noundef align 8 dereferenceable_or_null(40) %194, i1 noundef zeroext %196)
  call void @llvm.lifetime.end.p0(i64 8, ptr %4) #27
  call void @llvm.lifetime.end.p0(i64 1, ptr %3) #27
  ret void
}