; Function Attrs: mustprogress null_pointer_is_valid sspstrong uwtable
define void @_ZN19ExtcapOptionsDialog15anyValueChangedEv(ptr noundef readonly align 8 captures(none) dereferenceable_or_null(112) %0) #0 align 2 personality ptr @__gxx_personality_v0 {
  %2 = getelementptr inbounds nuw i8, ptr %0, i64 96
  %3 = getelementptr inbounds nuw i8, ptr %0, i64 104
  %4 = load i64, ptr %3, align 8
  %.idx.mask = and i64 %4, 2305843009213693951
  %.not57 = icmp eq i64 %.idx.mask, 0
  br i1 %.not57, label %._crit_edge, label %.lr.ph.preheader

.lr.ph.preheader:                                 ; preds = %1
  %5 = load ptr, ptr %2, align 8
  br label %.lr.ph

.lr.ph:                                           ; preds = %.lr.ph.preheader, %.lr.ph
  %.059 = phi i1 [ %spec.select38, %.lr.ph ], [ true, %.lr.ph.preheader ]
  %.sroa.0.058 = phi ptr [ %11, %.lr.ph ], [ %5, %.lr.ph.preheader ]
  %6 = load ptr, ptr %.sroa.0.058, align 8
  %7 = load ptr, ptr %6, align 8
  %8 = getelementptr inbounds nuw i8, ptr %7, i64 144
  %9 = load ptr, ptr %8, align 8
  %10 = tail call noundef zeroext i1 %9(ptr noundef align 8 dereferenceable_or_null(88) %6)
  %spec.select38 = select i1 %10, i1 %.059, i1 false
  %11 = getelementptr i8, ptr %.sroa.0.058, i64 8
  %12 = load ptr, ptr %2, align 8
  %13 = load i64, ptr %3, align 8
  %14 = getelementptr ptr, ptr %12, i64 %13
  %.not = icmp eq ptr %11, %14
  br i1 %.not, label %._crit_edge, label %.lr.ph, !llvm.loop !14

._crit_edge:                                      ; preds = %.lr.ph, %1
  %.0.lcssa = phi i1 [ true, %1 ], [ %spec.select38, %.lr.ph ]
  %15 = getelementptr inbounds nuw i8, ptr %0, i64 40
  %16 = load ptr, ptr %15, align 8
  %17 = getelementptr inbounds nuw i8, ptr %16, i64 32
  %18 = load ptr, ptr %17, align 8
  %19 = tail call noundef ptr @_ZNK16QDialogButtonBox6buttonENS_14StandardButtonE(ptr noundef align 8 dereferenceable_or_null(40) %18, i32 noundef 1024)
  tail call void @_ZN7QWidget10setEnabledEb(ptr noundef align 8 dereferenceable_or_null(40) %19, i1 noundef zeroext %.0.lcssa)
  ret void
}